; Function Attrs: nounwind sspstrong uwtable
define dso_local zeroext i1 @visit_type_q_obj_RbdEncryptionCreateOptions_base_members(ptr noundef %v, ptr noundef captures(none) %obj, ptr noundef %errp) local_unnamed_addr #0 {
entry:
  %value.i = alloca i32, align 4
  call void @llvm.lifetime.start.p0(i64 4, ptr nonnull %value.i)
  %0 = load i32, ptr %obj, align 4
  store i32 %0, ptr %value.i, align 4
  %call.i = call zeroext i1 @visit_type_enum(ptr noundef %v, ptr noundef nonnull @.str.10, ptr noundef nonnull %value.i, ptr noundef nonnull @RbdImageEncryptionFormat_lookup, ptr noundef %errp) #5
  %1 = load i32, ptr %value.i, align 4
  store i32 %1, ptr %obj, align 4
  call void @llvm.lifetime.end.p0(i64 4, ptr nonnull %value.i)
  ret i1 %call.i
}